target datalayout = "e-m:e-p270:32:32-p271:32:32-p272:64:64-i64:64-i128:128-f80:128-n8:16:32:64-S128"
target triple = "x86_64-pc-linux-gnu"

%"class.std::__cxx11::basic_string" = type { %"struct.std::__cxx11::basic_string<char>::_Alloc_hider", i64, %union.anon }
%"struct.std::__cxx11::basic_string<char>::_Alloc_hider" = type { ptr }
%union.anon = type { i64, [8 x i8] }
%"class.LIEF::MachO::LinkEdit" = type { %"class.LIEF::MachO::SegmentCommand", ptr, ptr, ptr, ptr, ptr, ptr, ptr, ptr, ptr, ptr, ptr, ptr }
%"class.LIEF::MachO::SegmentCommand" = type { %"class.LIEF::MachO::LoadCommand", %"class.std::__cxx11::basic_string", i64, i64, i64, i64, i32, i32, i32, i32, i8, %"class.std::vector.38", %"class.std::vector.43", %"class.std::vector.48" }
%"class.LIEF::MachO::LoadCommand" = type { %"class.LIEF::Object", %"class.std::vector.38", i64, i32, i64 }
%"class.LIEF::Object" = type { ptr }
%"class.std::vector.38" = type { %"struct.std::_Vector_base.39" }
%"struct.std::_Vector_base.39" = type { %"struct.std::_Vector_base<unsigned char, std::allocator<unsigned char>>::_Vector_impl" }
%"struct.std::_Vector_base<unsigned char, std::allocator<unsigned char>>::_Vector_impl" = type { %"struct.std::_Vector_base<unsigned char, std::allocator<unsigned char>>::_Vector_impl_data" }
%"struct.std::_Vector_base<unsigned char, std::allocator<unsigned char>>::_Vector_impl_data" = type { ptr, ptr, ptr }
%"class.std::vector.43" = type { %"struct.std::_Vector_base.44" }
%"struct.std::_Vector_base.44" = type { %"struct.std::_Vector_base<std::unique_ptr<LIEF::MachO::Section>, std::allocator<std::unique_ptr<LIEF::MachO::Section>>>::_Vector_impl" }
%"struct.std::_Vector_base<std::unique_ptr<LIEF::MachO::Section>, std::allocator<std::unique_ptr<LIEF::MachO::Section>>>::_Vector_impl" = type { %"struct.std::_Vector_base<std::unique_ptr<LIEF::MachO::Section>, std::allocator<std::unique_ptr<LIEF::MachO::Section>>>::_Vector_impl_data" }
%"struct.std::_Vector_base<std::unique_ptr<LIEF::MachO::Section>, std::allocator<std::unique_ptr<LIEF::MachO::Section>>>::_Vector_impl_data" = type { ptr, ptr, ptr }
%"class.std::vector.48" = type { %"struct.std::_Vector_base.49" }
%"struct.std::_Vector_base.49" = type { %"struct.std::_Vector_base<std::unique_ptr<LIEF::MachO::Relocation>, std::allocator<std::unique_ptr<LIEF::MachO::Relocation>>>::_Vector_impl" }
%"struct.std::_Vector_base<std::unique_ptr<LIEF::MachO::Relocation>, std::allocator<std::unique_ptr<LIEF::MachO::Relocation>>>::_Vector_impl" = type { %"struct.std::_Vector_base<std::unique_ptr<LIEF::MachO::Relocation>, std::allocator<std::unique_ptr<LIEF::MachO::Relocation>>>::_Vector_impl_data" }
%"struct.std::_Vector_base<std::unique_ptr<LIEF::MachO::Relocation>, std::allocator<std::unique_ptr<LIEF::MachO::Relocation>>>::_Vector_impl_data" = type { ptr, ptr, ptr }

; Function Attrs: inlinehint mustprogress nounwind uwtable
define linkonce_odr void @_ZSt4swapIPN4LIEF5MachO17DyldChainedFixupsEENSt9enable_ifIXsr6__and_ISt6__not_ISt15__is_tuple_likeIT_EESt21is_move_constructibleIS7_ESt18is_move_assignableIS7_EEE5valueEvE4typeERS7_SG_(ptr noundef nonnull align 8 dereferenceable(8) %0, ptr noundef nonnull align 8 dereferenceable(8) %1) #3 comdat {
  %3 = alloca ptr, align 8
  %4 = alloca ptr, align 8
  %5 = alloca ptr, align 8
  store ptr %0, ptr %3, align 8, !tbaa !22
  store ptr %1, ptr %4, align 8, !tbaa !22
  call void @llvm.lifetime.start.p0(i64 8, ptr %5) #19
  %6 = load ptr, ptr %3, align 8, !tbaa !22
  %7 = load ptr, ptr %6, align 8, !tbaa !24
  store ptr %7, ptr %5, align 8, !tbaa !24
  %8 = load ptr, ptr %4, align 8, !tbaa !22
  %9 = load ptr, ptr %8, align 8, !tbaa !24
  %10 = load ptr, ptr %3, align 8, !tbaa !22
  store ptr %9, ptr %10, align 8, !tbaa !24
  %11 = load ptr, ptr %5, align 8, !tbaa !24
  %12 = load ptr, ptr %4, align 8, !tbaa !22
  store ptr %11, ptr %12, align 8, !tbaa !24
  call void @llvm.lifetime.end.p0(i64 8, ptr %5) #19
  ret void
}

; Function Attrs: inlinehint mustprogress nounwind uwtable
define linkonce_odr void @_ZSt4swapIPN4LIEF5MachO8DyldInfoEENSt9enable_ifIXsr6__and_ISt6__not_ISt15__is_tuple_likeIT_EESt21is_move_constructibleIS7_ESt18is_move_assignableIS7_EEE5valueEvE4typeERS7_SG_(ptr noundef nonnull align 8 dereferenceable(8) %0, ptr noundef nonnull align 8 dereferenceable(8) %1) #3 comdat {
  %3 = alloca ptr, align 8
  %4 = alloca ptr, align 8
  %5 = alloca ptr, align 8
  store ptr %0, ptr %3, align 8, !tbaa !17
  store ptr %1, ptr %4, align 8, !tbaa !17
  call void @llvm.lifetime.start.p0(i64 8, ptr %5) #19
  %6 = load ptr, ptr %3, align 8, !tbaa !17
  %7 = load ptr, ptr %6, align 8, !tbaa !20
  store ptr %7, ptr %5, align 8, !tbaa !20
  %8 = load ptr, ptr %4, align 8, !tbaa !17
  %9 = load ptr, ptr %8, align 8, !tbaa !20
  %10 = load ptr, ptr %3, align 8, !tbaa !17
  store ptr %9, ptr %10, align 8, !tbaa !20
  %11 = load ptr, ptr %5, align 8, !tbaa !20
  %12 = load ptr, ptr %4, align 8, !tbaa !17
  store ptr %11, ptr %12, align 8, !tbaa !20
  call void @llvm.lifetime.end.p0(i64 8, ptr %5) #19
  ret void
}

; Function Attrs: mustprogress nounwind uwtable
define void @_ZN4LIEF5MachO8LinkEdit4swapERS1_(ptr noundef nonnull align 8 dereferenceable(312) %0, ptr noundef nonnull align 8 dereferenceable(312) %1) #1 align 2 {
  %3 = alloca ptr, align 8
  %4 = alloca ptr, align 8
  store ptr %0, ptr %3, align 8, !tbaa !15
  store ptr %1, ptr %4, align 8, !tbaa !15
  %5 = load ptr, ptr %3, align 8
  %6 = load ptr, ptr %4, align 8, !tbaa !15
  call void @_ZN4LIEF5MachO14SegmentCommand4swapERS1_(ptr noundef nonnull align 8 dereferenceable(216) %5, ptr noundef nonnull align 8 dereferenceable(216) %6) #19
  %7 = getelementptr inbounds nuw %"class.LIEF::MachO::LinkEdit", ptr %5, i32 0, i32 1
  %8 = load ptr, ptr %4, align 8, !tbaa !15
  %9 = getelementptr inbounds nuw %"class.LIEF::MachO::LinkEdit", ptr %8, i32 0, i32 1
  call void @_ZSt4swapIPN4LIEF5MachO8DyldInfoEENSt9enable_ifIXsr6__and_ISt6__not_ISt15__is_tuple_likeIT_EESt21is_move_constructibleIS7_ESt18is_move_assignableIS7_EEE5valueEvE4typeERS7_SG_(ptr noundef nonnull align 8 dereferenceable(8) %7, ptr noundef nonnull align 8 dereferenceable(8) %9) #19
  %10 = getelementptr inbounds nuw %"class.LIEF::MachO::LinkEdit", ptr %5, i32 0, i32 2
  %11 = load ptr, ptr %4, align 8, !tbaa !15
  %12 = getelementptr inbounds nuw %"class.LIEF::MachO::LinkEdit", ptr %11, i32 0, i32 2
  call void @_ZSt4swapIPN4LIEF5MachO17DyldChainedFixupsEENSt9enable_ifIXsr6__and_ISt6__not_ISt15__is_tuple_likeIT_EESt21is_move_constructibleIS7_ESt18is_move_assignableIS7_EEE5valueEvE4typeERS7_SG_(ptr noundef nonnull align 8 dereferenceable(8) %10, ptr noundef nonnull align 8 dereferenceable(8) %12) #19
  ret void
}

; Function Attrs: mustprogress nounwind uwtable
define noundef nonnull align 8 dereferenceable(312) ptr @_ZN4LIEF5MachO8LinkEditaSES1_(ptr noundef nonnull align 8 dereferenceable(312) %0, ptr noundef %1) #1 align 2 {
  %3 = alloca ptr, align 8
  %4 = alloca ptr, align 8
  store ptr %0, ptr %3, align 8, !tbaa !15
  store ptr %1, ptr %4, align 8, !tbaa !15
  %5 = load ptr, ptr %3, align 8
  call void @_ZN4LIEF5MachO8LinkEdit4swapERS1_(ptr noundef nonnull align 8 dereferenceable(312) %5, ptr noundef nonnull align 8 dereferenceable(312) %1) #19
  ret ptr %5
}